(dp1
S'Comment'
p2
S'TEXT'
p3
sS'user'
p4
S'REFERENCES auth_user(id) ON DELETE CASCADE'
p5
sS'Users'
p6
S'REFERENCES auth_user(id) ON DELETE CASCADE'
p7
sS'id'
p8
S'INTEGER PRIMARY KEY AUTOINCREMENT'
p9
s.