(dp1
S'album'
p2
S'TEXT'
p3
sS'rating'
p4
S'CHAR(512)'
p5
sS'name'
p6
S'CHAR(512)'
p7
sS'language'
p8
S'CHAR(512)'
p9
sS'song'
p10
S'CHAR(512)'
p11
sS'artist'
p12
S'TEXT'
p13
sS'genre'
p14
S'TEXT'
p15
sS'id'
p16
S'INTEGER PRIMARY KEY AUTOINCREMENT'
p17
s.