(dp1
S'Playlist'
p2
S'CHAR(512)'
p3
sS'User_id'
p4
S'REFERENCES auth_user(id) ON DELETE CASCADE'
p5
sS'id'
p6
S'INTEGER PRIMARY KEY AUTOINCREMENT'
p7
sS'Song'
p8
S'REFERENCES music(id) ON DELETE CASCADE'
p9
s.