(dp1
S'comment'
p2
S'TEXT'
p3
sS'music'
p4
S'REFERENCES music(id) ON DELETE CASCADE'
p5
sS'id'
p6
S'INTEGER PRIMARY KEY AUTOINCREMENT'
p7
sS'user'
p8
S'REFERENCES auth_user(id) ON DELETE CASCADE'
p9
s.