(dp1
S'output'
p2
S''
sS'layer'
p3
S'/home/pratyush/web2py/applications/music_library/views/default/home.html'
p4
sS'code'
p5
S'response.write(\'<!DOCTYPE html PUBLIC "-//W3C//DTD XHTML 1.0 Transitional//EN" "http://www.w3.org/TR/xhtml1/DTD/xhtml1-transitional.dtd">\\n<html xmlns="http://www.w3.org/1999/xhtml">\\n<head>\\n<meta http-equiv="Content-Type" content="text/html; charset=iso-8859-1" />\\n<meta name="keywords" content="\',escape=False)\nresponse.write(response.keywords)\nresponse.write(\'" />\\n<meta name="description" content="\',escape=False)\nresponse.write(response.description)\nresponse.write(\'" />\\n<title>\',escape=False)\nif response.title:\n    response.write(\'\',escape=False)\n    response.write(response.title)\n    response.write(\'\',escape=False)\nelse:\n    response.write(\'\',escape=False)\n    response.write(URL(r=request))\n    response.write(\'\',escape=False)\n    pass\nresponse.write(\'</title>\\n<link rel="stylesheet" href="/\',escape=False)\nresponse.write(request.application)\nresponse.write(\'/static/css/styles.css" type="text/css" />\\n<link rel="stylesheet" href="/\',escape=False)\nresponse.write(request.application)\nresponse.write(\'/static/css/common.css" type="text/css" />\\n<link rel="stylesheet" href="/\',escape=False)\nresponse.write(request.application)\nresponse.write(\'/static/css/lightbox.css" media="screen,projection"  type="text/css"/>\\n\\n<script type="text/javascript" src="/\',escape=False)\nresponse.write(request.application)\nresponse.write(\'/static/js/prototype.js"></script>\\n<script type="text/javascript" src="/\',escape=False)\nresponse.write(request.application)\nresponse.write(\'/static/js/scriptaculous.js"></script>\\n<script type="text/javascript" src="/\',escape=False)\nresponse.write(request.application)\nresponse.write(\'/static/js/effects.js"></script>\\n<script type="text/javascript" src="/\',escape=False)\nresponse.write(request.application)\nresponse.write(\'/static/js/dragdrop.js"></script>\\n<script type="text/javascript" src="/\',escape=False)\nresponse.write(request.application)\nresponse.write(\'/static/js/controls.js"></script>\\n\\n<script type="text/javascript" src="/\',escape=False)\nresponse.write(request.application)\nresponse.write(\'/static/js/lightbox.js"></script>\\n\\n\\n<script type="text/javascript">\\n<!--\\n/*\\nWritten by Massimo Di Pierro.\\n\\nThis is a minimalistic AJAX for web2py, for more sophisticated stuff\\nyou should use Scriptacolous or some other AJAX toolkit. Anyway...\\n\\nTo use web2py_ajax.html just make sure you include \\\'web2py_ajax.html\\\'\\nin your layout.html. This provides four functions:\\n\\npopup(url)\\ncollapse(id)\\nfade(id,value) // try value= +0.1 or -0.1\\najax(url,sources,taget) \\n// will send sources[i].value to url and dispaly result in target\\n*/\\n\\nfunction popup(url) {\\n  newwindow=window.open(url,\\\'name\\\',\\\'height=400,width=600\\\');\\n  if (window.focus) {newwindow.focus()}\\n  return false;\\n}\\n\\nfunction collapse(id) {\\n   if(this.document.getElementById(id).style.display=="none")\\n   (this.document.getElementById(id).style.display="block") ;\\n   else (this.document.getElementById(id).style.display="none") ;\\n}\\n\\nfunction fade(id,value) {\\n  var object=document.getElementById(id);\\n  if(value<0 && !object.style.opacity) {\\n     this.document.getElementById(id).style.display="block";\\n     object.style.opacity=1;\\n  }\\n  if(value>0 && object.style.opacity>=1) object.style.opacity=1;\\n  else if(value<0 && object.style.opacity<=0) {\\n     this.document.getElementById(id).style.display="none";\\n     object.style.opacity=0;\\n  }\\n  else {\\n     this.document.getElementById(id).style.display="block";\\n     object.style.opacity-=-value;\\n     setTimeout(function(){fade(id,value);},100);\\n     return false;\\n  }\\n  return true;\\n}\\n\\nfunction ajax(url,sources,target) {\\n  var req = null; \\n  var ctarget=document.getElementById(target);\\n  window.status="connecting...";\\n  if(window.XMLHttpRequest)\\n     req = new XMLHttpRequest(); \\n  else if (window.ActiveXObject)\\n     req  = new ActiveXObject("Microsoft.XMLHTTP");\\n  req.onreadystatechange = function() {\\n     window.status="waiting...";\\n     if(req.readyState == 4)\\n       if(req.status == 200) {\\n          window.status=\\\'Ajax Done!\\\'\\n          try { \\n             ctarget.innerHTML=req.responseText; \\n             try {ctarget.scrollTop=ctarget.scrollHeight-ctarget.clientHeight;}\\n             catch(err) {}\\n          } catch(err) { ctarget.value=req.responseText; }\\n       } else alert("AJAX Error: " + req.status);\\n  }\\n  var query=""\\n  for(i=0; i<sources.length; i++) {\\n     if(i>0) query=query+"&";\\n     query=query+encodeURIComponent(sources[i])+"="+encodeURIComponent(document.getElementById(sources[i]).value);\\n  }\\n  req.open("POST",url,true); \\n  req.setRequestHeader("Content-Type", "application/x-www-form-urlencoded"); \\n  req.send(query); \\n} \\n//-->\\n</script>\\n\\n</head>\\n<body onload="\',escape=False)\nif response.flash:\n    response.write("fade(\'flash\',0.1);",escape=False)\n    pass\nresponse.write(\'">\\n<div id="container">\\n  <div id="header">\\n    <h1><span class="o">Movie</span><span class="db">Rate</span></h1>\\n    <h2>Share your thoughts!</h2>\\n  </div>\\n\\n\',escape=False)\nif response.menu:\n    response.write(\'\\n   <div id="nav">\\n   <ul>\\n    \',escape=False)\n    for _name,_active,_link in response.menu:\n        response.write(\'\\n    <li><a href="\',escape=False)\n        response.write(_link)\n        response.write(\'" \',escape=False)\n        if _active:\n            response.write(\'class="active"\',escape=False)\n            pass\n        response.write(\'>\',escape=False)\n        response.write(_name)\n        response.write(\'</a></li>\\n    \',escape=False)\n        pass\n    response.write(\'\\n   </ul>\\n   </div>\\n\',escape=False)\n    pass\nresponse.write(\'\\n\\n  <div>\\n    <br/>\\n    <br/>\\n    <div>\\n        \',escape=False)\nif response.flash:\n    response.write(\'\\n            <div id="flash">\',escape=False)\n    response.write(response.flash)\n    response.write(\'</div>\\n        \',escape=False)\n    pass\nresponse.write(\'\\n        \\n\\n    </div>\\n\\n  </div>\\n</div>\\n</body>\\n</html>\\n\',escape=False)'
p6
sS'traceback'
p7
S'Traceback (most recent call last):\n  File "/home/pratyush/web2py/gluon/restricted.py", line 173, in restricted\n    exec ccode in environment\n  File "/home/pratyush/web2py/applications/music_library/views/default/home.html", line 40, in <module>\nValueError: too many values to unpack\n'
p8
s.