(dp1
S'output'
p2
S''
sS'layer'
p3
S'/home/pratyush/web2py/applications/music_library/views/default/forum.html'
p4
sS'code'
p5
S'response.write(\'<!DOCTYPE html PUBLIC "-//W3C//DTD XHTML 1.0 Strict//EN" "http://www.w3.org/TR/xhtml1/DTD/xhtml1-strict.dtd">\\r\\n<html xmlns="http://www.w3.org/1999/xhtml">\\r\\n<head>\\n\\n<title>\',escape=False)\nresponse.write(response.title or request.application)\nresponse.write(\'</title>\\n    <meta http-equiv="Content-Type" content="text/html; charset=UTF-8" />     \\n    <!--\',escape=False)\nresponse.files.append(URL(request.application,\'static\',\'default.css\'))\nresponse.write(\'-->\\n    <script type="text/javascript">\\n<!--\\n/*\\nWritten by Massimo Di Pierro.\\n\\nThis is a minimalistic AJAX for web2py, for more sophisticated stuff\\nyou should use Scriptacolous or some other AJAX toolkit. Anyway...\\n\\nTo use web2py_ajax.html just make sure you include \\\'web2py_ajax.html\\\'\\nin your layout.html. This provides four functions:\\n\\npopup(url)\\ncollapse(id)\\nfade(id,value) // try value= +0.1 or -0.1\\najax(url,sources,taget) \\n// will send sources[i].value to url and dispaly result in target\\n*/\\n\\nfunction popup(url) {\\n  newwindow=window.open(url,\\\'name\\\',\\\'height=400,width=600\\\');\\n  if (window.focus) {newwindow.focus()}\\n  return false;\\n}\\n\\nfunction collapse(id) {\\n   if(this.document.getElementById(id).style.display=="none")\\n   (this.document.getElementById(id).style.display="block") ;\\n   else (this.document.getElementById(id).style.display="none") ;\\n}\\n\\nfunction fade(id,value) {\\n  var object=document.getElementById(id);\\n  if(value<0 && !object.style.opacity) {\\n     this.document.getElementById(id).style.display="block";\\n     object.style.opacity=1;\\n  }\\n  if(value>0 && object.style.opacity>=1) object.style.opacity=1;\\n  else if(value<0 && object.style.opacity<=0) {\\n     this.document.getElementById(id).style.display="none";\\n     object.style.opacity=0;\\n  }\\n  else {\\n     this.document.getElementById(id).style.display="block";\\n     object.style.opacity-=-value;\\n     setTimeout(function(){fade(id,value);},100);\\n     return false;\\n  }\\n  return true;\\n}\\n\\nfunction ajax(url,sources,target) {\\n  var req = null; \\n  var ctarget=document.getElementById(target);\\n  window.status="connecting...";\\n  if(window.XMLHttpRequest)\\n     req = new XMLHttpRequest(); \\n  else if (window.ActiveXObject)\\n     req  = new ActiveXObject("Microsoft.XMLHTTP");\\n  req.onreadystatechange = function() {\\n     window.status="waiting...";\\n     if(req.readyState == 4)\\n       if(req.status == 200) {\\n          window.status=\\\'Ajax Done!\\\'\\n          try { \\n             ctarget.innerHTML=req.responseText; \\n             try {ctarget.scrollTop=ctarget.scrollHeight-ctarget.clientHeight;}\\n             catch(err) {}\\n          } catch(err) { ctarget.value=req.responseText; }\\n       } else alert("AJAX Error: " + req.status);\\n  }\\n  var query=""\\n  for(i=0; i<sources.length; i++) {\\n     if(i>0) query=query+"&";\\n     query=query+encodeURIComponent(sources[i])+"="+encodeURIComponent(document.getElementById(sources[i]).value);\\n  }\\n  req.open("POST",url,true); \\n  req.setRequestHeader("Content-Type", "application/x-www-form-urlencoded"); \\n  req.send(query);\\n  jQuery("#stars-wrapper").stars({inputType: "select"});\\n \\n} \\n//-->\\n</script>\\n<script src="http://ajax.googleapis.com/ajax/libs/jqueryui/1.7.2/jquery-ui.js" type="text/javascript"></script>\\n<script src="\',escape=False)\nresponse.write(URL(r=request,c=\'static/stars\',f=\'ui.stars.js\'))\nresponse.write(\'" type="text/javascript"></script>\\n<link href="\',escape=False)\nresponse.write(URL(r=request,c=\'static/stars\',f=\'ui.stars.css\'))\nresponse.write(\'" rel="stylesheet" type="text/css" media="screen" charset="utf-8" />\\n\\n\\n<script type="text/javascript">\\n\\n/* this adds sfhover class to menu li items to make IE6 work \\njQuery(document).ready(function(){\\n    jQuery(\\\'li.web2py-menu-expand\\\').hover(\\n        function () {\\n            jQuery(this).addClass(\\\'sfhover\\\');\\n        },\\n        function () {\\n            jQuery(this).removeClass(\\\'sfhover\\\');\\n        }\\n    );\\n});\\n*/\\n</script>\\r\\n<meta name="keywords" content="\',escape=False)\nresponse.write(response.keywords)\nresponse.write(\'" />\\r\\n<meta name="description" content="\',escape=False)\nresponse.write(response.description)\nresponse.write(\'" />\\r\\n<link href="/\',escape=False)\nresponse.write(request.application)\nresponse.write(\'/static/default.css" rel="stylesheet" type="text/css" />\\r\\n</head>\\r\\n<body>\\n\\n\\r\\n<div id="header">\\r\\n\\t<div id="logo">\\n\\n\\r\\n\\t\\t<h1>JukeBox</h1>\\n\\t\\t<!--h1>\',escape=False)\nresponse.write(A(response.title or request.application, _href=URL(request.application,\'default\',\'index\')))\nresponse.write(\'</h1-->\\r\\n\\t\\t<h2><a href="#">Share Your Music !</a></h2>\\n\\n\\r\\n\\t</div>\\r\\n\\t<div id="menu">\\r\\n\\t\\t<ul><!-- this part checks whether the user is logged in or not and accordingly shows the required page -->\\n\\t\\t\\t\\n\\t\\t\\t\',escape=False)\nif \'auth\' in globals():\n    response.write(\'\\n\\t     \\t\\t\',escape=False)\n    if auth.user:\n        response.write(\'\\n\\t    \\t\\t\\t<li class="first"><a href="/music_library/default/index">\',escape=False)\n        response.write(T(\'Home\'))\n        response.write(\'</a></li>\\t\\n            \\t\\t\\t<li><a href="/music_library/default/navigate">\',escape=False)\n        response.write(T(\'Navigate\'))\n        response.write(\'</a></li>\\n            \\t\\t\\t<!--li><a href="/music_library/default/view">\',escape=False)\n        response.write(T(\'View Songs\'))\n        response.write(\'</a></li>\\n\\t    \\t\\t\\t<li><a href="/music_library/default/add">\',escape=False)\n        response.write(T(\'Add Song\'))\n        response.write(\'</a></li>\\n\\t    \\t\\t\\t<li><a href="/music_library/default/user_set">\',escape=False)\n        response.write(T(\'Settings\'))\n        response.write(\'</a></li-->\\n\\t    \\t\\t\',escape=False)\n    else:\n        response.write(\'\\n\\t\\t\\t\\t<li class="first"><a href="\',escape=False)\n        response.write(URL(r=request,c=\'default\',f=\'user/login\'))\n        response.write(\'">\',escape=False)\n        response.write(T(\'Login\'))\n        response.write(\'</a></li> \\n\\t\\t\\t    \',escape=False)\n        pass\n    response.write(\' \\n\\t\\t\\t    \',escape=False)\n    pass\nresponse.write(\'\\n\\t\\t\\t    <li><a href="/music_library/default/search">\',escape=False)\nresponse.write(T(\'Search\'))\nresponse.write(\'</a></li>\\n\\t  \\t  \',escape=False)\nif \'auth\' in globals():\n    response.write(\'\\n          \\t   \',escape=False)\n    if auth.user:\n        response.write(\'\\t\\t\\n\\t  \\t   <li><a href="\',escape=False)\n        response.write(URL(r=request,c=\'default\',f=\'user/logout\'))\n        response.write(\'">\',escape=False)\n        response.write(T(\'Logout\'))\n        response.write(\'</a></li>\\n\\t  \\t   \',escape=False)\n        pass\n    response.write(\'\\n\\t \\t   \',escape=False)\n    pass\nresponse.write(\'\\n\\n\\n\\n\\n\\r\\n\\t\\t\\t<!--li class="first"><a href="#" title="">Home</a></li>\\r\\n\\t\\t\\t<li><a href="me.html" title="">About me</a></li>\\r\\n\\t\\t\\t<li><a href="int.html" title="">Interests</a></li>\\r\\n\\t\\t\\t<li><a href="pic.html" title="">Pics</a></li>\\r\\n\\t\\t\\t<li><a href="contact.html" title="">Contact me</a></li-->\\r\\n\\t\\t</ul>\\r\\n\\t</div>\\r\\n</div>\\r\\n<!-- end #header -->\\n\\r\\n\\n<div id="page">\\r\\n\\t<div id="content">\\n\\t\',escape=False)\nif \'auth\' in globals():\n    response.write(\'\\n             \\t\\t\',escape=False)\n    if auth.user:\n        response.write(\'\\r\\n\\t\\t<div class="boxed">\\r\\n\\t\\t\\t<h2>\\n\\t\\t\\t\\n\\t\\t\\tWelcome \',escape=False)\n        response.write(auth.user.first_name)\n        response.write(\'\\n\\t     \\t\\t</h2>\\n\\t\\t\\t\',escape=False)\n        pass\n    response.write(\'\\n\\t\\t\\t\',escape=False)\n    pass\nresponse.write(\'\\r\\n\\t\\t\\t<div class="content">\\r\\n\\t\\t\\t\\t<div>\',escape=False)\nresponse.write(response.flash or \'\')\nresponse.write(\'</div>\\n             \\n\',escape=False)\nmusics=comments\nresponse.write(\'\\n\',escape=False)\nusers=users\nresponse.write(\'\\n<p style="text-align:center">\\n\',escape=False)\nfor music in musics:\n    response.write(\'\\n\\t\',escape=False)\n    for i in users:\n        response.write(\'\\n\\t\\t\\t\',escape=False)\n        if i.id==music.Users:\n            response.write(\'\\n\\t\\t\\t\\t\',escape=False)\n            response.write(i.name)\n            response.write(\' says:<br />\\n\\t\\t\\t\\t\',escape=False)\n            response.write(music.Comment)\n            response.write(\'<br /><br />\\n\\t\\t\\t\',escape=False)\n            pass\n        response.write(\'\\n<!--td>\',escape=False)\n        response.write(A(\'delete song\',_href=URL(r=request, f=\'delete\', args=music.id)))\n        response.write(\'</td "opens only at the time of maintainence"-->\\n \\t\',escape=False)\n        pass\n    response.write(\'\\n\',escape=False)\n    pass\nresponse.write(\'\\n\',escape=False)\nresponse.write(form)\nresponse.write(\'\\n</p>\\n\\r\\n\\t\\t\\t</div>\\r\\n\\t\\t</div>\\r\\n\\t\\t<!--<div class="boxed">\\r\\n\\t\\t\\t<h2>Examples of Common Tags</h2>\\r\\n\\t\\t\\t<div class="content">\\r\\n\\t\\t\\t\\t<p>This is an example of a paragraph followed by a blockquote:</p>\\r\\n\\t\\t\\t\\t<blockquote>\\r\\n\\t\\t\\t\\t\\t<p>&ldquo;Pellentesque tristique ante ut  risus. Quisque dictum. Integer nisl risus, sagittis convallis, rutrum  id, elementum congue, nibh. Suspendisse dictum porta lectus. Donec  placerat odio.&rdquo;</p>\\r\\n\\t\\t\\t\\t</blockquote>\\r\\n\\t\\t\\t\\t<h3>Heading Level Three</h3>\\r\\n\\t\\t\\t\\t<p>In posuere eleifend odio. Quisque semper augue mattis wisi. Maecenas ligula. Pellentesque viverra vulputate enim. Aliquam erat volutpat. Pellentesque tristique ante ut risus. Quisque dictum. Integer nisl risus, sagittis convallis, rutrum id, elementum congue, nibh.</p>\\r\\n\\t\\t\\t\\t<p>This is another example of a paragraph followed by an ordered list:</p>\\r\\n\\t\\t\\t\\t<p>An ordered list example:</p>\\r\\n\\t\\t\\t\\t<ol>\\r\\n\\t\\t\\t\\t\\t<li><a href="#">Ut semper vestibulum est</a></li>\\r\\n\\t\\t\\t\\t\\t<li><a href="#">Vestibulum luctus enatis</a></li>\\r\\n\\t\\t\\t\\t\\t<li><a href="#">Integer rutrum nisl in mi</a></li>\\r\\n\\t\\t\\t\\t\\t<li><a href="#">Etiam malesuada rutrum</a></li>\\r\\n\\t\\t\\t\\t\\t<li><a href="#">Aenean elementum facilisis</a></li>\\r\\n\\t\\t\\t\\t\\t<li><a href="#">Ut tincidunt elit vitae</a></li>\\r\\n\\t\\t\\t\\t\\t<li><a href="#">Sed quis odio sagittis leo</a></li>\\r\\n\\t\\t\\t\\t</ol>\\r\\n\\t\\t\\t</div>\\r\\n\\t\\t</div>-->\\r\\n\\t</div>\\r\\n\\t<!-- end #content -->\\r\\n\\t<div id="sidebar">\\r\\n\\t\\t\\r\\n\\t\\t<ul>\\r\\n\\t\\t\\t<li>\\r\\n\\t\\t\\t\\t<h2>News &amp; Events</h2>\\r\\n\\t\\t\\t\\t<dl>\\r\\n\\t\\t\\t\\t\\t\\n\\t\\t\\t\\t\\t<dt><strong>Music_Library Completed</strong></dt>\\n\\t\\t\\t\\t\\t<dt>As Music_Library is an open source site for sharing and getting song of various genres,languages,albums, u can listen or/and download any song for FREE! However in order to share your own songs and to get a better web interface, you are required to register by simply clicking on the register button and providing certain details. Registration is also absolutely FREE! ENJOY!!</dt>\\n\\t\\t\\t\\t\\t<!--dt><strong>April 5, 2007</strong></dt>\\r\\n\\t\\t\\t\\t\\t<dd>In posuere eleifend odio quisque semper augue mattis wisi maecenas ligula. <a href="#">More&hellip;</a></dd>\\r\\n\\t\\t\\t\\t\\t<dt><strong>April 2, 2007</strong></dt>\\r\\n\\t\\t\\t\\t\\t<dd>Donec leo, vivamus fermentum nibh in augue praesent a lacus at urna congue rutrum. <a href="#">More&hellip;</a></dd>\\r\\n\\t\\t\\t\\t\\t<dt><strong>March 30, 2007</strong></dt>\\r\\n\\t\\t\\t\\t\\t<dd>Quisque dictum integer nisl risus, sagittis convallis, rutrum id, congue, and nibh. <a href="#">More&hellip;</a></dd-->\\r\\n\\t\\t\\t\\t</dl>\\r\\n\\t\\t\\t</li>\\r\\n\\t\\t\\t<!--li>\\r\\n\\t\\t\\t\\t<h2>Numbered List</h2>\\r\\n\\t\\t\\t\\t<ol>\\r\\n\\t\\t\\t\\t\\t<li><a href="#">Ut semper vestibulum est</a></li>\\r\\n\\t\\t\\t\\t\\t<li><a href="#">Vestibulum luctus enatis</a></li>\\r\\n\\t\\t\\t\\t\\t<li><a href="#">Integer rutrum nisl in mi</a></li>\\r\\n\\t\\t\\t\\t\\t<li><a href="#">Etiam malesuada rutrum</a></li>\\r\\n\\t\\t\\t\\t\\t<li><a href="#">Aenean elementum facilisis</a></li>\\r\\n\\t\\t\\t\\t\\t<li><a href="#">Ut tincidunt elit vitae</a></li>\\r\\n\\t\\t\\t\\t\\t<li><a href="#">Sed quis odio sagittis leo</a></li>\\r\\n\\t\\t\\t\\t</ol>\\r\\n\\t\\t\\t</li>\\r\\n\\t\\t\\t<li>\\r\\n\\t\\t\\t\\t<h2>A Sidebar\\\'s Blockquote</h2>\\r\\n\\t\\t\\t\\t<blockquote>\\r\\n\\t\\t\\t\\t\\t<p>&ldquo;Quisque dictum integer nisl risus, sagittis convallis, rutrum id, congue, and nibh. Donec leo, vivamus fermentum nibh in augue praesent a lacus at urna congue rutrum.&rdquo;</p>\\r\\n\\t\\t\\t\\t</blockquote>\\r\\n\\t\\t\\t\\t<ul>\\r\\n\\t\\t\\t\\t\\t<li><a href="#">Ut semper vestibulum est</a></li>\\r\\n\\t\\t\\t\\t\\t<li><a href="#">Vestibulum luctus ipsum</a></li>\\r\\n\\t\\t\\t\\t\\t<li><a href="#">Integer rutrum nisl nul</a></li>\\r\\n\\t\\t\\t\\t</ul>\\r\\n\\t\\t\\t</li-->\\r\\n\\t\\t</ul>\\r\\n\\t</div>\\r\\n\\t<!-- end #sidebar -->\\r\\n\\t<div style="clear: both;">&nbsp;</div>\\r\\n</div>\\r\\n<!-- end #page -->\\r\\n<div id="footer">\\r\\n\\t<p id="legal" style="text-align:center">Copyright &copy; 2010. All Rights Reserved. Designed by Pratyush Nigam and Kshitij Ingle</p><br />\\r\\n\\t<!--p id="links" style="text-align:center"><a href="#">HOME</a> | <a href="#">ABOUT ME</a> | <a href="#">INTERESTS</a> | <a href="#">PICS</a> | <a href="#">CONTACT ME</a></p--> \\r\\n</div>\\r\\n</body>\\r\\n</html>\\r\\n\',escape=False)'
p6
sS'traceback'
p7
S'Traceback (most recent call last):\n  File "/home/pratyush/web2py/gluon/restricted.py", line 173, in restricted\n    exec ccode in environment\n  File "/home/pratyush/web2py/applications/music_library/views/default/forum.html", line 78, in <module>\n  File "/home/pratyush/web2py/gluon/sql.py", line 664, in __getattr__\n    return dict.__getitem__(self,key)\nKeyError: \'name\'\n'
p8
s.