(dp1
S'output'
p2
S''
sS'layer'
p3
S'/home/pratyush/web2py/applications/music_library/views/default/user.html'
p4
sS'code'
p5
S'response.write(\'<!DOCTYPE html PUBLIC "-//W3C//DTD XHTML 1.0 Transitional//EN" "http://www.w3.org/TR/xhtml1/DTD/xhtml1-transitional.dtd">\\n<html xmlns="http://www.w3.org/1999/xhtml" xml:lang="\',escape=False)\nresponse.write(T.accepted_language or \'en\')\nresponse.write(\'">\\n  <head>\\n    <title>\',escape=False)\nresponse.write(response.title or request.application)\nresponse.write(\'</title>\\n    <meta http-equiv="Content-Type" content="text/html; charset=UTF-8" />     \\n    \',escape=False)\nresponse.files.append(URL(request.application,\'static\',\'base.css\'))\nresponse.write(\'\\n    <script type="text/javascript">\\n<!--\\n/*\\nWritten by Massimo Di Pierro.\\n\\nThis is a minimalistic AJAX for web2py, for more sophisticated stuff\\nyou should use Scriptacolous or some other AJAX toolkit. Anyway...\\n\\nTo use web2py_ajax.html just make sure you include \\\'web2py_ajax.html\\\'\\nin your layout.html. This provides four functions:\\n\\npopup(url)\\ncollapse(id)\\nfade(id,value) // try value= +0.1 or -0.1\\najax(url,sources,taget) \\n// will send sources[i].value to url and dispaly result in target\\n*/\\n\\nfunction popup(url) {\\n  newwindow=window.open(url,\\\'name\\\',\\\'height=400,width=600\\\');\\n  if (window.focus) {newwindow.focus()}\\n  return false;\\n}\\n\\nfunction collapse(id) {\\n   if(this.document.getElementById(id).style.display=="none")\\n   (this.document.getElementById(id).style.display="block") ;\\n   else (this.document.getElementById(id).style.display="none") ;\\n}\\n\\nfunction fade(id,value) {\\n  var object=document.getElementById(id);\\n  if(value<0 && !object.style.opacity) {\\n     this.document.getElementById(id).style.display="block";\\n     object.style.opacity=1;\\n  }\\n  if(value>0 && object.style.opacity>=1) object.style.opacity=1;\\n  else if(value<0 && object.style.opacity<=0) {\\n     this.document.getElementById(id).style.display="none";\\n     object.style.opacity=0;\\n  }\\n  else {\\n     this.document.getElementById(id).style.display="block";\\n     object.style.opacity-=-value;\\n     setTimeout(function(){fade(id,value);},100);\\n     return false;\\n  }\\n  return true;\\n}\\n\\nfunction ajax(url,sources,target) {\\n  var req = null; \\n  var ctarget=document.getElementById(target);\\n  window.status="connecting...";\\n  if(window.XMLHttpRequest)\\n     req = new XMLHttpRequest(); \\n  else if (window.ActiveXObject)\\n     req  = new ActiveXObject("Microsoft.XMLHTTP");\\n  req.onreadystatechange = function() {\\n     window.status="waiting...";\\n     if(req.readyState == 4)\\n       if(req.status == 200) {\\n          window.status=\\\'Ajax Done!\\\'\\n          try { \\n             ctarget.innerHTML=req.responseText; \\n             try {ctarget.scrollTop=ctarget.scrollHeight-ctarget.clientHeight;}\\n             catch(err) {}\\n          } catch(err) { ctarget.value=req.responseText; }\\n       } else alert("AJAX Error: " + req.status);\\n  }\\n  var query=""\\n  for(i=0; i<sources.length; i++) {\\n     if(i>0) query=query+"&";\\n     query=query+encodeURIComponent(sources[i])+"="+encodeURIComponent(document.getElementById(sources[i]).value);\\n  }\\n  req.open("POST",url,true); \\n  req.setRequestHeader("Content-Type", "application/x-www-form-urlencoded"); \\n  req.send(query);\\n  jQuery("#stars-wrapper").stars({inputType: "select"});\\n \\n} \\n//-->\\n</script>\\n<script src="http://ajax.googleapis.com/ajax/libs/jqueryui/1.7.2/jquery-ui.js" type="text/javascript"></script>\\n<script src="\',escape=False)\nresponse.write(URL(r=request,c=\'static/stars\',f=\'ui.stars.js\'))\nresponse.write(\'" type="text/javascript"></script>\\n<link href="\',escape=False)\nresponse.write(URL(r=request,c=\'static/stars\',f=\'ui.stars.css\'))\nresponse.write(\'" rel="stylesheet" type="text/css" media="screen" charset="utf-8" />\\n\\n\\n<script type="text/javascript">\\n\\n/* this adds sfhover class to menu li items to make IE6 work */\\njQuery(document).ready(function(){\\n    jQuery(\\\'li.web2py-menu-expand\\\').hover(\\n        function () {\\n            jQuery(this).addClass(\\\'sfhover\\\');\\n        },\\n        function () {\\n            jQuery(this).removeClass(\\\'sfhover\\\');\\n        }\\n    );\\n});\\n\\n</script> \\n  </head>\\n  <body style="background-color:yellow">\\n    <div class="wrapper">\\n      <table class="layout">\\n        <tr>\\n          <td colspan="3"  class="header">\\n            <h1>\\n              \',escape=False)\nresponse.write(A(response.title or request.application, _href=URL(request.application,\'default\',\'index\')))\nresponse.write(\'\\n            </h1>            \\n\\t    <h3>Share your Music</h3>\\n            <!--<h3>\',escape=False)\nresponse.write(response.subtitle or \'IIIT Hyderabad\')\nresponse.write(\'</h3>-->\\n          </td>\\n        </tr>\\n        <tr>\\n          <td colspan="3" class="statusbar">\\n            <!--\',escape=False)\nresponse.write(\'/\'.join([\'\',request.application,request.controller,request.function]+request.args))\nresponse.write(\'-->\\n\\t    \',escape=False)\nif \'auth\' in globals():\n    response.write(\'\\n\\t    [ \',escape=False)\n    if not auth.user:\n        response.write(\'\\n\\t    <a href="\',escape=False)\n        response.write(URL(r=request,c=\'default\',f=\'user/login\'))\n        response.write(\'">\',escape=False)\n        response.write(T(\'login\'))\n        response.write(\'</a> |\\n\\t    <a href="\',escape=False)\n        response.write(URL(r=request,c=\'default\',f=\'user/register\'))\n        response.write(\'">\',escape=False)\n        response.write(T(\'register\'))\n        response.write(\'</a> |\\n\\t    <!--a href="\',escape=False)\n        response.write(URL(r=request,c=\'default\',f=\'user/request_reset_password\'))\n        response.write(\'">\',escape=False)\n        response.write(T(\'lost password\'))\n        response.write(\'</a-->\\n\\t    \',escape=False)\n    else:\n        response.write(\'\\n\\t    [welcome\\n\\t    \',escape=False)\n        response.write(auth.user.first_name)\n        response.write(\' |\\n\\t    <a href="/music_library/default/user_set">\',escape=False)\n        response.write(T(User Settings))\n        response.write(\'</a>|\\n\\t    <!--a href="\',escape=False)\n        response.write(URL(r=request,c=\'default\',f=\'user/change_password\'))\n        response.write(\'">\',escape=False)\n        response.write(T(\'change password\'))\n        response.write(\'</a> |\\n\\t    <a href="\',escape=False)\n        response.write(URL(r=request,c=\'default\',f=\'user/profile\'))\n        response.write(\'">\',escape=False)\n        response.write(T(\'edit profile\'))\n        response.write(\'</a>|\\n\\t    <a href="\',escape=False)\n        response.write(URL(r=request,c=\'default\',f=\'user/logout\'))\n        response.write(\'">\',escape=False)\n        response.write(T(\'logout\'))\n        response.write(\'</a|--> \\n\\t    \',escape=False)\n        pass\n    response.write(\' ]\\n\\t    \',escape=False)\n    pass\nresponse.write(\'\\n\\t    <a href="/music_library/default/index">\',escape=False)\nresponse.write(T(\'Home\'))\nresponse.write(\'</a>|\\t\\n            <a href="/music_library/default/view">\',escape=False)\nresponse.write(T(\'View All Songs\'))\nresponse.write(\'</a>|\\n\\t    <a href="/music_library/default/search">\',escape=False)\nresponse.write(T(\'Search a Song\'))\nresponse.write(\'</a>|\\n\\t    <a href="/music_library/default/add">\',escape=False)\nresponse.write(T(\'Add Songs\'))\nresponse.write(\'</a>|\\n\\t    <a href="/music_library/default/download">\',escape=False)\nresponse.write(T(\'Download Songs\'))\nresponse.write(\'</a>]\\n          </td>\\n        </tr>\\n        <tr>\\n          <!--td class="width10em column1">\\n\\t    <h3><a href="/music_library/default/index">\',escape=False)\nresponse.write(T(\'Home\'))\nresponse.write(\'</a></h3>\\t\\n            <h3><a href="/music_library/default/view">\',escape=False)\nresponse.write(T(\'View All Songs\'))\nresponse.write(\'</a></h3>\\n\\t    <h3><a href="/music_library/default/search">\',escape=False)\nresponse.write(T(\'Search a Song\'))\nresponse.write(\'</a></h3>\\n\\t    <h3><a href="/music_library/default/add">\',escape=False)\nresponse.write(T(\'Add Songs\'))\nresponse.write(\'</a></h3>\\n\\t    <h3><a href="/music_library/default/download">\',escape=False)\nresponse.write(T(\'Download Songs\'))\nresponse.write(\'</a></h3>\\n\\t </td-->\\n          <td class="expandable column2">\\n            <div class="flash">\',escape=False)\nresponse.write(response.flash or \'\')\nresponse.write(\'</div>\\n            \\n<h2>\',escape=False)\nresponse.write(request.args(0).replace(\'_\',\' \').capitalize())\nresponse.write(\'</h2>\\n\',escape=False)\nresponse.write(form)\nresponse.write(\'\\n\',escape=False)\nif request.args(0)==\'login\':\n    response.write(\'\\n<a href="\',escape=False)\n    response.write(URL(r=request,args=\'register\'))\n    response.write(\'">register</a><br />\\n<!--a href="\',escape=False)\n    response.write(URL(r=request,args=\'retrieve_password\'))\n    response.write(\'">lost password</a><br />-->\\n\',escape=False)\n    pass\nresponse.write(\'\\n\\n          </td>\\n          \\n               <!--td class="width10em column3">\\n                 <h2>Right Column</h2>\\n               </td-->\\n          \\n        </tr>\\n        <tr>\\n          <td colspan="10" class="footer">\\n            <p>\\n            \',escape=False)\nresponse.write(T(\'Copyright\'))\nresponse.write(\' &copy; 2010 -\\n            \',escape=False)\nresponse.write(T(\'Powered by\'))\nresponse.write(\' <a href="http://www.web2py.com">web2py</a>\\n\\t    \',escape=False)\nresponse.write(T(\'Designed by Pratyush Nigam and Kshitij Ingle\'))\nresponse.write(\'\\n            </p>\\n          </td>\\n        </tr>\\n      </table>\\n    </div>\\n  </body>\\n</html>\\n\',escape=False)'
p6
sS'traceback'
p7
S'Traceback (most recent call last):\n  File "/home/pratyush/web2py/gluon/restricted.py", line 171, in restricted\n    ccode = compile(code.replace(\'\\r\\n\', \'\\n\'), layer, \'exec\')\n  File "/home/pratyush/web2py/applications/music_library/views/default/user.html", line 38\n    response.write(T(User Settings))\n                                 ^\nSyntaxError: invalid syntax\n'
p8
s.