(dp1
S'output'
p2
S''
sS'layer'
p3
S'/home/pratyush/web2py/applications/music_library/controllers/default.py'
p4
sS'code'
p5
S'# -*- coding: utf-8 -*- \n\n#########################################################################\n## This is a samples controller\n## - index is the default action of any application\n## - user is required for authentication and authorization\n## - download is for downloading files uploaded in the db (does streaming)\n## - call exposes all registered services (none by default)\n#########################################################################  \n\ndef index():\n    """\n    example action using the internationalization operator T and flash\n    rendered by views/default/index.html or views/generic.html\n    """\n    response.flash = T(\'Welcome to Courses Portal\')\n\t\n    #courses=db().select(db.courses.ALL, orderby=db.courses.course_id)\n    return dict(message=T(\'IIIT Courses Portal\'))\n\n#@auth.requires_login()\ndef user():\n    """\n    exposes:\n    http://..../[app]/default/user/login \n    http://..../[app]/default/user/logout\n    http://..../[app]/default/user/register\n    http://..../[app]/default/user/profile\n    http://..../[app]/default/user/retrieve_password\n    http://..../[app]/default/user/change_password\n    use @auth.requires_login()\n        @auth.requires_membership(\'group name\')\n        @auth.requires_permission(\'read\',\'table name\',record_id)\n    to decorate functions that need access control\n    """\n    #return dict(form=crud.create(db.courses))\t\n    return dict(form=auth())\n\n\ndef download():\n    import os\n    filename=os.path.join(request.folder,\'uploads/\',\'%s\' % request.args[0])\n    return response.stream(open(filename,\'rb\'))\n\n\n\ndef call():\n    """\n    exposes services. for example:\n    http://..../[app]/default/call/jsonrpc\n    decorate with @services.jsonrpc the functions to expose\n    supports xml, json, xmlrpc, jsonrpc, amfrpc, rss, csv\n    """\n    session.forget()\n    return service()\n\ndef play():\n    musics=db(request.args(0)==db.music.id).select(db.music.ALL)\n    #musics=db().select(db.music.ALL, orderby=db.music.name)\n    return dict(musics=musics)\n\ndef navigate():\n    return dict()\n\n    \n\n@auth.requires_login()\ndef home():\n    musics=db().select(db.music.ALL, orderby=db.music.name)\n    return dict(musics=musics)\n\n@auth.requires_login()\ndef add():\n    #record= db.music(request.args(0)) or redirect(URL(\'index\'))\n    #url=URL(\'download\')\n    form = SQLFORM(db.music)\n    if form.accepts(request.vars):\n        response.flash = \'Success!\'\n    elif form.errors:\n        response.flash = \'Error adding new music\'\n    \n    return dict(form=form)\n\n@auth.requires_login()\ndef view():\n    musics=db().select(db.music.ALL, orderby=db.music.name)\n    return dict(musics=musics)\n\ndef search():    \n    name=TD(\'Search music name:\')\n    namebox=TD(INPUT(_id=\'music_name\',_name=\'music[name]\',_size=\'30\',_type=\'text\',requires=IS_NOT_EMPTY()),DIV(_class=\'auto_complete\',_id=\'music_name_auto_complete\'))   \n    submit=TD(INPUT(_type=\'submit\',_name=\'submit\',_value=\'Submit\'))\n    """descr=TD(\'search music by description:\')\n    descrbox=TD(INPUT(_id=\'music_descr\',_name=\'music[descr]\',_size=\'30\',_type=\'text\'),DIV(_class=\'auto_complete\',_id=\'music_descr_auto_complete\'))\n    """\n    form=FORM(TABLE(TR(name,namebox,submit)))\n    \n    musics=None\n    \n    if form.accepts(request.vars,session):\n        search=request.vars[\'music[name]\']\n        musics=db(db.music.name.upper().like(\'%\'+search.upper()+\'%\')).select(db.music.ALL)\n    \n\n    return dict(form=form,musics=musics)\n\n\ndef search1():\n    artist=TD(\'Search music artist:\')\n    artistbox=TD(INPUT(_id=\'music_artist\',_artist=\'music[artist]\',_size=\'30\',_type=\'text\',requires=IS_NOT_EMPTY()),DIV(_class=\'auto_complete\',_id=\'music_artist_auto_complete\'))   \n    submit=TD(INPUT(_type=\'submit\',_artist=\'submit\',_value=\'Submit\'))\n    """descr=TD(\'search music by description:\')\n    descrbox=TD(INPUT(_id=\'music_descr\',_artist=\'music[descr]\',_size=\'30\',_type=\'text\'),DIV(_class=\'auto_complete\',_id=\'music_descr_auto_complete\'))\n    """\n    form=FORM(TABLE(TR(artist,artistbox,submit)))\n\n    musics=None\n\n    if form.accepts(request.vars,session):\n        search1=request.vars[\'music[artist]\']\n        musics=db(db.music.artist.upper().like(\'%\'+search.upper()+\'%\')).select(db.music.ALL)\n\n\n    return dict(form=form,musics=musics)\n\n\n\n\n\ndef user_set():\n    return dict()\n\n\n\n\n    """perpage = 10  \n    mode=\'view\'\n    rmates={}\n    unrate=\'\'\n    if request.vars and request.vars.has_key(\'page\'):\n        pagenum = int(request.vars[\'page\'])\n    else:\n        pagenum = 0\n        \n  \n    if request.vars and request.vars.has_key(\'unrated\') and request.vars.unrated==\'true\':\n        condition=(db.music.id.belongs(db((db.music.id==db.musicrate.musicid)&(db.musicrate.userid==session.user_id))._select(db.musicrate.musicid, groupby=db.musicrate.musicid)))\n        unrate=\'true\'\n    else:\n        condition=(db.music.id==0) \n    \n\n    musics=db(\'NOT %s\' % (condition)).select(db.music.id, db.music.name, db.music.song, limitby=((pagenum)*perpage,(pagenum+1)*perpage), groupby=db.music.name)\n    \n    #rates =getUsermusicRate(session.user_id)\n    \n    rows = db(\'NOT %s\' % (condition)).select(db.music.id, groupby=db.music.id)\n    \n    numofpage = ((len(rows)-1) / perpage) +1\n    return dict(musics=musics,mode=mode, numofpage=numofpage, currentpage=pagenum,rates=rates,unrate=unrate);\n\n    @auth.requires_login()\ndef rate():\n    form = SQLFORM(db.test)\n    return dict(form=form)"""\n\nresponse._vars=response._caller(search1)\n'
p6
sS'traceback'
p7
S'Traceback (most recent call last):\n  File "/home/pratyush/web2py/gluon/restricted.py", line 173, in restricted\n    exec ccode in environment\n  File "/home/pratyush/web2py/applications/music_library/controllers/default.py", line 167, in <module>\n  File "/home/pratyush/web2py/gluon/globals.py", line 96, in <lambda>\n    self._caller = lambda f: f()\n  File "/home/pratyush/web2py/applications/music_library/controllers/default.py", line 120, in search1\n    search1=request.vars[\'music[artist]\']\nKeyError: \'music[artist]\'\n'
p8
s.